target datalayout = "e-m:e-p270:32:32-p271:32:32-p272:64:64-i64:64-i128:128-f80:128-n8:16:32:64-S128"
target triple = "x86_64-pc-linux-gnu"

%struct.H5O_layout_t = type { i32, i32, ptr, %union.anon, %struct.H5O_storage_t }
%union.anon = type { %struct.H5O_layout_chunk_t }
%struct.H5O_layout_chunk_t = type { i32, i8, i32, [33 x i32], i32, i32, i64, i64, [33 x i64], [33 x i64], [33 x i64], [33 x i64], %union.anon.0 }
%union.anon.0 = type { %struct.H5O_layout_chunk_earray_t }
%struct.H5O_layout_chunk_earray_t = type { %struct.anon.1, i32, [33 x i32], [33 x i64], [33 x i64] }
%struct.anon.1 = type { i8, i8, i8, i8, i8 }
%struct.H5O_storage_t = type { i32, %union.anon.3 }
%union.anon.3 = type { %struct.H5O_storage_virtual_t }
%struct.H5O_storage_virtual_t = type { %struct.H5HG_t, i64, ptr, i64, [32 x i64], i32, i64, i64, i64, i8 }
%struct.H5HG_t = type { i64, i64 }
%struct.H5O_efl_t = type { i64, i64, i64, ptr }
%struct.H5O_loc_t = type { ptr, i64, i8 }
%struct.H5_ih_info_t = type { i64, i64 }

@.str.2 = private unnamed_addr constant [99 x i8] c"generated/home/dtcxzyw/WorkSpace/Projects/compilers/llvm-opt-benchmark/bench/hdf5/hdf5/src/H5Doh.c\00", align 1
@H5E_DATASET_g = external global i64, align 8
@H5E_CANTGET_g = external global i64, align 8
@H5E_OHDR_g = external global i64, align 8
@__func__.H5O__dset_bh_info = private unnamed_addr constant [18 x i8] c"H5O__dset_bh_info\00", align 1
@.str.14 = private unnamed_addr constant [26 x i8] c"can't find layout message\00", align 1
@.str.15 = private unnamed_addr constant [43 x i8] c"can't determine chunked dataset btree info\00", align 1
@.str.16 = private unnamed_addr constant [55 x i8] c"can't get global heap size for virtual dataset mapping\00", align 1
@H5E_NOTFOUND_g = external global i64, align 8
@.str.17 = private unnamed_addr constant [32 x i8] c"unable to check for EFL message\00", align 1
@.str.18 = private unnamed_addr constant [23 x i8] c"can't find EFL message\00", align 1
@.str.19 = private unnamed_addr constant [30 x i8] c"can't determine EFL heap info\00", align 1
@H5E_CANTRESET_g = external global i64, align 8
@.str.20 = private unnamed_addr constant [44 x i8] c"unable to reset data storage layout message\00", align 1
@.str.21 = private unnamed_addr constant [43 x i8] c"unable to reset external file list message\00", align 1

; Function Attrs: nounwind uwtable
define internal i32 @H5O__dset_bh_info(ptr noundef %0, ptr noundef %1, ptr noundef %2) #0 {
  %4 = alloca ptr, align 8
  %5 = alloca ptr, align 8
  %6 = alloca ptr, align 8
  %7 = alloca %struct.H5O_layout_t, align 8
  %8 = alloca %struct.H5O_efl_t, align 8
  %9 = alloca i8, align 1
  %10 = alloca i8, align 1
  %11 = alloca i32, align 4
  %12 = alloca i32, align 4
  %13 = alloca i8, align 1
  %14 = alloca i64, align 8
  store ptr %0, ptr %4, align 8
  store ptr %1, ptr %5, align 8
  store ptr %2, ptr %6, align 8
  store i8 0, ptr %9, align 1
  store i8 0, ptr %10, align 1
  store i32 0, ptr %12, align 4
  store i8 0, ptr %13, align 1
  %15 = load ptr, ptr %4, align 8
  %16 = getelementptr inbounds %struct.H5O_loc_t, ptr %15, i32 0, i32 0
  %17 = load ptr, ptr %16, align 8
  %18 = load ptr, ptr %5, align 8
  %19 = call ptr @H5O_msg_read_oh(ptr noundef %17, ptr noundef %18, i32 noundef 8, ptr noundef %7)
  %20 = icmp eq ptr null, %19
  br i1 %20, label %21, label %36

21:                                               ; preds = %3
  br label %22

22:                                               ; preds = %21
  br label %23

23:                                               ; preds = %22
  br label %24

24:                                               ; preds = %23
  %25 = load i64, ptr @H5E_OHDR_g, align 8
  %26 = load i64, ptr @H5E_CANTGET_g, align 8
  %27 = call i32 (ptr, ptr, i32, i64, i64, ptr, ...) @H5E_printf_stack(ptr noundef @.str.2, ptr noundef @__func__.H5O__dset_bh_info, i32 noundef 354, i64 noundef %25, i64 noundef %26, ptr noundef @.str.14)
  br label %28

28:                                               ; preds = %24
  store i8 1, ptr %13, align 1
  %29 = load i8, ptr %13, align 1
  %30 = trunc i8 %29 to i1
  %31 = zext i1 %30 to i8
  store i8 %31, ptr %13, align 1
  br label %32

32:                                               ; preds = %28
  br label %33

33:                                               ; preds = %32
  store i32 -1, ptr %12, align 4
  br label %178

34:                                               ; No predecessors!
  br label %35

35:                                               ; preds = %34
  br label %36

36:                                               ; preds = %35, %3
  store i8 1, ptr %9, align 1
  %37 = getelementptr inbounds %struct.H5O_layout_t, ptr %7, i32 0, i32 0
  %38 = load i32, ptr %37, align 8
  %39 = icmp eq i32 %38, 2
  br i1 %39, label %40, label %66

40:                                               ; preds = %36
  %41 = getelementptr inbounds %struct.H5O_layout_t, ptr %7, i32 0, i32 4
  %42 = call zeroext i1 @H5D__chunk_is_space_alloc(ptr noundef %41)
  br i1 %42, label %43, label %66

43:                                               ; preds = %40
  %44 = load ptr, ptr %4, align 8
  %45 = load ptr, ptr %5, align 8
  %46 = load ptr, ptr %6, align 8
  %47 = getelementptr inbounds %struct.H5_ih_info_t, ptr %46, i32 0, i32 0
  %48 = call i32 @H5D__chunk_bh_info(ptr noundef %44, ptr noundef %45, ptr noundef %7, ptr noundef %47)
  %49 = icmp slt i32 %48, 0
  br i1 %49, label %50, label %65

50:                                               ; preds = %43
  br label %51

51:                                               ; preds = %50
  br label %52

52:                                               ; preds = %51
  br label %53

53:                                               ; preds = %52
  %54 = load i64, ptr @H5E_OHDR_g, align 8
  %55 = load i64, ptr @H5E_CANTGET_g, align 8
  %56 = call i32 (ptr, ptr, i32, i64, i64, ptr, ...) @H5E_printf_stack(ptr noundef @.str.2, ptr noundef @__func__.H5O__dset_bh_info, i32 noundef 361, i64 noundef %54, i64 noundef %55, ptr noundef @.str.15)
  br label %57

57:                                               ; preds = %53
  store i8 1, ptr %13, align 1
  %58 = load i8, ptr %13, align 1
  %59 = trunc i8 %58 to i1
  %60 = zext i1 %59 to i8
  store i8 %60, ptr %13, align 1
  br label %61

61:                                               ; preds = %57
  br label %62

62:                                               ; preds = %61
  store i32 -1, ptr %12, align 4
  br label %178

63:                                               ; No predecessors!
  br label %64

64:                                               ; preds = %63
  br label %65

65:                                               ; preds = %64, %43
  br label %106

66:                                               ; preds = %40, %36
  %67 = getelementptr inbounds %struct.H5O_layout_t, ptr %7, i32 0, i32 0
  %68 = load i32, ptr %67, align 8
  %69 = icmp eq i32 %68, 3
  br i1 %69, label %70, label %105

70:                                               ; preds = %66
  %71 = getelementptr inbounds %struct.H5O_layout_t, ptr %7, i32 0, i32 4
  %72 = getelementptr inbounds %struct.H5O_storage_t, ptr %71, i32 0, i32 1
  %73 = getelementptr inbounds %struct.H5O_storage_virtual_t, ptr %72, i32 0, i32 0
  %74 = getelementptr inbounds %struct.H5HG_t, ptr %73, i32 0, i32 0
  %75 = load i64, ptr %74, align 8
  %76 = icmp ne i64 %75, -1
  br i1 %76, label %77, label %105

77:                                               ; preds = %70
  %78 = load ptr, ptr %4, align 8
  %79 = getelementptr inbounds %struct.H5O_loc_t, ptr %78, i32 0, i32 0
  %80 = load ptr, ptr %79, align 8
  %81 = getelementptr inbounds %struct.H5O_layout_t, ptr %7, i32 0, i32 4
  %82 = getelementptr inbounds %struct.H5O_storage_t, ptr %81, i32 0, i32 1
  %83 = getelementptr inbounds %struct.H5O_storage_virtual_t, ptr %82, i32 0, i32 0
  %84 = call i32 @H5HG_get_obj_size(ptr noundef %80, ptr noundef %83, ptr noundef %14)
  %85 = icmp slt i32 %84, 0
  br i1 %85, label %86, label %101

86:                                               ; preds = %77
  br label %87

87:                                               ; preds = %86
  br label %88

88:                                               ; preds = %87
  br label %89

89:                                               ; preds = %88
  %90 = load i64, ptr @H5E_DATASET_g, align 8
  %91 = load i64, ptr @H5E_CANTGET_g, align 8
  %92 = call i32 (ptr, ptr, i32, i64, i64, ptr, ...) @H5E_printf_stack(ptr noundef @.str.2, ptr noundef @__func__.H5O__dset_bh_info, i32 noundef 369, i64 noundef %90, i64 noundef %91, ptr noundef @.str.16)
  br label %93

93:                                               ; preds = %89
  store i8 1, ptr %13, align 1
  %94 = load i8, ptr %13, align 1
  %95 = trunc i8 %94 to i1
  %96 = zext i1 %95 to i8
  store i8 %96, ptr %13, align 1
  br label %97

97:                                               ; preds = %93
  br label %98

98:                                               ; preds = %97
  store i32 -1, ptr %12, align 4
  br label %178

99:                                               ; No predecessors!
  br label %100

100:                                              ; preds = %99
  br label %101

101:                                              ; preds = %100, %77
  %102 = load i64, ptr %14, align 8
  %103 = load ptr, ptr %6, align 8
  %104 = getelementptr inbounds %struct.H5_ih_info_t, ptr %103, i32 0, i32 1
  store i64 %102, ptr %104, align 8
  br label %105

105:                                              ; preds = %101, %70, %66
  br label %106

106:                                              ; preds = %105, %65
  %107 = load ptr, ptr %5, align 8
  %108 = call i32 @H5O_msg_exists_oh(ptr noundef %107, i32 noundef 7)
  store i32 %108, ptr %11, align 4
  %109 = icmp slt i32 %108, 0
  br i1 %109, label %110, label %125

110:                                              ; preds = %106
  br label %111

111:                                              ; preds = %110
  br label %112

112:                                              ; preds = %111
  br label %113

113:                                              ; preds = %112
  %114 = load i64, ptr @H5E_OHDR_g, align 8
  %115 = load i64, ptr @H5E_NOTFOUND_g, align 8
  %116 = call i32 (ptr, ptr, i32, i64, i64, ptr, ...) @H5E_printf_stack(ptr noundef @.str.2, ptr noundef @__func__.H5O__dset_bh_info, i32 noundef 377, i64 noundef %114, i64 noundef %115, ptr noundef @.str.17)
  br label %117

117:                                              ; preds = %113
  store i8 1, ptr %13, align 1
  %118 = load i8, ptr %13, align 1
  %119 = trunc i8 %118 to i1
  %120 = zext i1 %119 to i8
  store i8 %120, ptr %13, align 1
  br label %121

121:                                              ; preds = %117
  br label %122

122:                                              ; preds = %121
  store i32 -1, ptr %12, align 4
  br label %178

123:                                              ; No predecessors!
  br label %124

124:                                              ; preds = %123
  br label %125

125:                                              ; preds = %124, %106
  %126 = load i32, ptr %11, align 4
  %127 = icmp ne i32 %126, 0
  br i1 %127, label %128, label %177

128:                                              ; preds = %125
  %129 = getelementptr inbounds %struct.H5O_layout_t, ptr %7, i32 0, i32 4
  %130 = call zeroext i1 @H5D__efl_is_space_alloc(ptr noundef %129)
  br i1 %130, label %131, label %177

131:                                              ; preds = %128
  call void @llvm.memset.p0.i64(ptr align 8 %8, i8 0, i64 32, i1 false)
  %132 = load ptr, ptr %4, align 8
  %133 = getelementptr inbounds %struct.H5O_loc_t, ptr %132, i32 0, i32 0
  %134 = load ptr, ptr %133, align 8
  %135 = load ptr, ptr %5, align 8
  %136 = call ptr @H5O_msg_read_oh(ptr noundef %134, ptr noundef %135, i32 noundef 7, ptr noundef %8)
  %137 = icmp eq ptr null, %136
  br i1 %137, label %138, label %153

138:                                              ; preds = %131
  br label %139

139:                                              ; preds = %138
  br label %140

140:                                              ; preds = %139
  br label %141

141:                                              ; preds = %140
  %142 = load i64, ptr @H5E_OHDR_g, align 8
  %143 = load i64, ptr @H5E_CANTGET_g, align 8
  %144 = call i32 (ptr, ptr, i32, i64, i64, ptr, ...) @H5E_printf_stack(ptr noundef @.str.2, ptr noundef @__func__.H5O__dset_bh_info, i32 noundef 385, i64 noundef %142, i64 noundef %143, ptr noundef @.str.18)
  br label %145

145:                                              ; preds = %141
  store i8 1, ptr %13, align 1
  %146 = load i8, ptr %13, align 1
  %147 = trunc i8 %146 to i1
  %148 = zext i1 %147 to i8
  store i8 %148, ptr %13, align 1
  br label %149

149:                                              ; preds = %145
  br label %150

150:                                              ; preds = %149
  store i32 -1, ptr %12, align 4
  br label %178

151:                                              ; No predecessors!
  br label %152

152:                                              ; preds = %151
  br label %153

153:                                              ; preds = %152, %131
  store i8 1, ptr %10, align 1
  %154 = load ptr, ptr %4, align 8
  %155 = getelementptr inbounds %struct.H5O_loc_t, ptr %154, i32 0, i32 0
  %156 = load ptr, ptr %155, align 8
  %157 = load ptr, ptr %6, align 8
  %158 = getelementptr inbounds %struct.H5_ih_info_t, ptr %157, i32 0, i32 1
  %159 = call i32 @H5D__efl_bh_info(ptr noundef %156, ptr noundef %8, ptr noundef %158)
  %160 = icmp slt i32 %159, 0
  br i1 %160, label %161, label %176

161:                                              ; preds = %153
  br label %162

162:                                              ; preds = %161
  br label %163

163:                                              ; preds = %162
  br label %164

164:                                              ; preds = %163
  %165 = load i64, ptr @H5E_OHDR_g, align 8
  %166 = load i64, ptr @H5E_CANTGET_g, align 8
  %167 = call i32 (ptr, ptr, i32, i64, i64, ptr, ...) @H5E_printf_stack(ptr noundef @.str.2, ptr noundef @__func__.H5O__dset_bh_info, i32 noundef 390, i64 noundef %165, i64 noundef %166, ptr noundef @.str.19)
  br label %168

168:                                              ; preds = %164
  store i8 1, ptr %13, align 1
  %169 = load i8, ptr %13, align 1
  %170 = trunc i8 %169 to i1
  %171 = zext i1 %170 to i8
  store i8 %171, ptr %13, align 1
  br label %172

172:                                              ; preds = %168
  br label %173

173:                                              ; preds = %172
  store i32 -1, ptr %12, align 4
  br label %178

174:                                              ; No predecessors!
  br label %175

175:                                              ; preds = %174
  br label %176

176:                                              ; preds = %175, %153
  br label %177

177:                                              ; preds = %176, %128, %125
  br label %178

178:                                              ; preds = %177, %173, %150, %122, %98, %62, %33
  %179 = load i8, ptr %9, align 1
  %180 = trunc i8 %179 to i1
  br i1 %180, label %181, label %197

181:                                              ; preds = %178
  %182 = call i32 @H5O_msg_reset(i32 noundef 8, ptr noundef %7)
  %183 = icmp slt i32 %182, 0
  br i1 %183, label %184, label %197

184:                                              ; preds = %181
  br label %185

185:                                              ; preds = %184
  br label %186

186:                                              ; preds = %185
  br label %187

187:                                              ; preds = %186
  %188 = load i64, ptr @H5E_DATASET_g, align 8
  %189 = load i64, ptr @H5E_CANTRESET_g, align 8
  %190 = call i32 (ptr, ptr, i32, i64, i64, ptr, ...) @H5E_printf_stack(ptr noundef @.str.2, ptr noundef @__func__.H5O__dset_bh_info, i32 noundef 396, i64 noundef %188, i64 noundef %189, ptr noundef @.str.20)
  br label %191

191:                                              ; preds = %187
  store i8 1, ptr %13, align 1
  %192 = load i8, ptr %13, align 1
  %193 = trunc i8 %192 to i1
  %194 = zext i1 %193 to i8
  store i8 %194, ptr %13, align 1
  br label %195

195:                                              ; preds = %191
  store i32 -1, ptr %12, align 4
  br label %196

196:                                              ; preds = %195
  br label %197

197:                                              ; preds = %196, %181, %178
  %198 = load i8, ptr %10, align 1
  %199 = trunc i8 %198 to i1
  br i1 %199, label %200, label %216

200:                                              ; preds = %197
  %201 = call i32 @H5O_msg_reset(i32 noundef 7, ptr noundef %8)
  %202 = icmp slt i32 %201, 0
  br i1 %202, label %203, label %216

203:                                              ; preds = %200
  br label %204

204:                                              ; preds = %203
  br label %205

205:                                              ; preds = %204
  br label %206

206:                                              ; preds = %205
  %207 = load i64, ptr @H5E_DATASET_g, align 8
  %208 = load i64, ptr @H5E_CANTRESET_g, align 8
  %209 = call i32 (ptr, ptr, i32, i64, i64, ptr, ...) @H5E_printf_stack(ptr noundef @.str.2, ptr noundef @__func__.H5O__dset_bh_info, i32 noundef 398, i64 noundef %207, i64 noundef %208, ptr noundef @.str.21)
  br label %210

210:                                              ; preds = %206
  store i8 1, ptr %13, align 1
  %211 = load i8, ptr %13, align 1
  %212 = trunc i8 %211 to i1
  %213 = zext i1 %212 to i8
  store i8 %213, ptr %13, align 1
  br label %214

214:                                              ; preds = %210
  store i32 -1, ptr %12, align 4
  br label %215

215:                                              ; preds = %214
  br label %216

216:                                              ; preds = %215, %200, %197
  %217 = load i32, ptr %12, align 4
  ret i32 %217
}