; Function Attrs: nounwind uwtable
define internal range(i32 -1, 1) i32 @H5O__dset_bh_info(ptr noundef %0, ptr noundef %1, ptr noundef %2) #0 {
  %4 = alloca %struct.H5O_layout_t, align 8
  %5 = alloca %struct.H5O_efl_t, align 8
  %6 = alloca i64, align 8
  %7 = load ptr, ptr %0, align 8
  %8 = call ptr @H5O_msg_read_oh(ptr noundef %7, ptr noundef %1, i32 noundef 8, ptr noundef nonnull %4) #3
  %.not31 = icmp eq ptr %8, null
  br i1 %.not31, label %.thread37, label %9

9:                                                ; preds = %3
  %10 = load i32, ptr %4, align 8
  %11 = icmp eq i32 %10, 2
  br i1 %11, label %12, label %22

12:                                               ; preds = %9
  %13 = getelementptr inbounds i8, ptr %4, i64 1912
  %14 = call zeroext i1 @H5D__chunk_is_space_alloc(ptr noundef nonnull %13) #3
  br i1 %14, label %15, label %._crit_edge

._crit_edge:                                      ; preds = %12
  %.pre = load i32, ptr %4, align 8
  br label %22

15:                                               ; preds = %12
  %16 = call i32 @H5D__chunk_bh_info(ptr noundef nonnull %0, ptr noundef %1, ptr noundef nonnull %4, ptr noundef %2) #3
  %17 = icmp slt i32 %16, 0
  br i1 %17, label %18, label %39

18:                                               ; preds = %15
  %19 = load i64, ptr @H5E_OHDR_g, align 8
  %20 = load i64, ptr @H5E_CANTGET_g, align 8
  %21 = call i32 (ptr, ptr, i32, i64, i64, ptr, ...) @H5E_printf_stack(ptr noundef nonnull @.str.2, ptr noundef nonnull @__func__.H5O__dset_bh_info, i32 noundef 361, i64 noundef %19, i64 noundef %20, ptr noundef nonnull @.str.15) #3
  br label %70

22:                                               ; preds = %._crit_edge, %9
  %23 = phi i32 [ %.pre, %._crit_edge ], [ %10, %9 ]
  %24 = icmp eq i32 %23, 3
  %25 = getelementptr inbounds i8, ptr %4, i64 1920
  %26 = load i64, ptr %25, align 8
  %27 = icmp ne i64 %26, -1
  %or.cond = select i1 %24, i1 %27, i1 false
  br i1 %or.cond, label %28, label %39

28:                                               ; preds = %22
  %29 = load ptr, ptr %0, align 8
  %30 = call i32 @H5HG_get_obj_size(ptr noundef %29, ptr noundef nonnull %25, ptr noundef nonnull %6) #3
  %31 = icmp slt i32 %30, 0
  br i1 %31, label %32, label %36

32:                                               ; preds = %28
  %33 = load i64, ptr @H5E_DATASET_g, align 8
  %34 = load i64, ptr @H5E_CANTGET_g, align 8
  %35 = call i32 (ptr, ptr, i32, i64, i64, ptr, ...) @H5E_printf_stack(ptr noundef nonnull @.str.2, ptr noundef nonnull @__func__.H5O__dset_bh_info, i32 noundef 369, i64 noundef %33, i64 noundef %34, ptr noundef nonnull @.str.16) #3
  br label %70

36:                                               ; preds = %28
  %37 = load i64, ptr %6, align 8
  %38 = getelementptr inbounds i8, ptr %2, i64 8
  store i64 %37, ptr %38, align 8
  br label %39

39:                                               ; preds = %22, %36, %15
  %40 = call i32 @H5O_msg_exists_oh(ptr noundef %1, i32 noundef 7) #3
  %41 = icmp slt i32 %40, 0
  br i1 %41, label %42, label %46

42:                                               ; preds = %39
  %43 = load i64, ptr @H5E_OHDR_g, align 8
  %44 = load i64, ptr @H5E_NOTFOUND_g, align 8
  %45 = call i32 (ptr, ptr, i32, i64, i64, ptr, ...) @H5E_printf_stack(ptr noundef nonnull @.str.2, ptr noundef nonnull @__func__.H5O__dset_bh_info, i32 noundef 377, i64 noundef %43, i64 noundef %44, ptr noundef nonnull @.str.17) #3
  br label %70

46:                                               ; preds = %39
  %.not = icmp eq i32 %40, 0
  br i1 %.not, label %70, label %47

47:                                               ; preds = %46
  %48 = getelementptr inbounds i8, ptr %4, i64 1912
  %49 = call zeroext i1 @H5D__efl_is_space_alloc(ptr noundef nonnull %48) #3
  br i1 %49, label %50, label %70

50:                                               ; preds = %47
  call void @llvm.memset.p0.i64(ptr noundef nonnull align 8 dereferenceable(32) %5, i8 0, i64 32, i1 false)
  %51 = load ptr, ptr %0, align 8
  %52 = call ptr @H5O_msg_read_oh(ptr noundef %51, ptr noundef %1, i32 noundef 7, ptr noundef nonnull %5) #3
  %53 = icmp eq ptr %52, null
  br i1 %53, label %54, label %58

54:                                               ; preds = %50
  %55 = load i64, ptr @H5E_OHDR_g, align 8
  %56 = load i64, ptr @H5E_CANTGET_g, align 8
  %57 = call i32 (ptr, ptr, i32, i64, i64, ptr, ...) @H5E_printf_stack(ptr noundef nonnull @.str.2, ptr noundef nonnull @__func__.H5O__dset_bh_info, i32 noundef 385, i64 noundef %55, i64 noundef %56, ptr noundef nonnull @.str.18) #3
  br label %70

58:                                               ; preds = %50
  %59 = load ptr, ptr %0, align 8
  %60 = getelementptr inbounds i8, ptr %2, i64 8
  %61 = call i32 @H5D__efl_bh_info(ptr noundef %59, ptr noundef nonnull %5, ptr noundef nonnull %60) #3
  %62 = icmp slt i32 %61, 0
  br i1 %62, label %63, label %70

63:                                               ; preds = %58
  %64 = load i64, ptr @H5E_OHDR_g, align 8
  %65 = load i64, ptr @H5E_CANTGET_g, align 8
  %66 = call i32 (ptr, ptr, i32, i64, i64, ptr, ...) @H5E_printf_stack(ptr noundef nonnull @.str.2, ptr noundef nonnull @__func__.H5O__dset_bh_info, i32 noundef 390, i64 noundef %64, i64 noundef %65, ptr noundef nonnull @.str.19) #3
  br label %70

.thread37:                                        ; preds = %3
  %67 = load i64, ptr @H5E_OHDR_g, align 8
  %68 = load i64, ptr @H5E_CANTGET_g, align 8
  %69 = call i32 (ptr, ptr, i32, i64, i64, ptr, ...) @H5E_printf_stack(ptr noundef nonnull @.str.2, ptr noundef nonnull @__func__.H5O__dset_bh_info, i32 noundef 354, i64 noundef %67, i64 noundef %68, ptr noundef nonnull @.str.14) #3
  br label %85

70:                                               ; preds = %46, %47, %58, %63, %54, %42, %32, %18
  %.029.ph = phi i1 [ false, %32 ], [ false, %46 ], [ false, %47 ], [ true, %58 ], [ true, %63 ], [ false, %54 ], [ false, %42 ], [ false, %18 ]
  %.0.ph = phi i32 [ -1, %32 ], [ 0, %46 ], [ 0, %47 ], [ 0, %58 ], [ -1, %63 ], [ -1, %54 ], [ -1, %42 ], [ -1, %18 ]
  %71 = call i32 @H5O_msg_reset(i32 noundef 8, ptr noundef nonnull %4) #3
  %72 = icmp slt i32 %71, 0
  br i1 %72, label %73, label %77

73:                                               ; preds = %70
  %74 = load i64, ptr @H5E_DATASET_g, align 8
  %75 = load i64, ptr @H5E_CANTRESET_g, align 8
  %76 = call i32 (ptr, ptr, i32, i64, i64, ptr, ...) @H5E_printf_stack(ptr noundef nonnull @.str.2, ptr noundef nonnull @__func__.H5O__dset_bh_info, i32 noundef 396, i64 noundef %74, i64 noundef %75, ptr noundef nonnull @.str.20) #3
  br i1 %.029.ph, label %78, label %85

77:                                               ; preds = %70
  br i1 %.029.ph, label %78, label %85

78:                                               ; preds = %73, %77
  %.140 = phi i32 [ -1, %73 ], [ %.0.ph, %77 ]
  %79 = call i32 @H5O_msg_reset(i32 noundef 7, ptr noundef nonnull %5) #3
  %80 = icmp slt i32 %79, 0
  br i1 %80, label %81, label %85

81:                                               ; preds = %78
  %82 = load i64, ptr @H5E_DATASET_g, align 8
  %83 = load i64, ptr @H5E_CANTRESET_g, align 8
  %84 = call i32 (ptr, ptr, i32, i64, i64, ptr, ...) @H5E_printf_stack(ptr noundef nonnull @.str.2, ptr noundef nonnull @__func__.H5O__dset_bh_info, i32 noundef 398, i64 noundef %82, i64 noundef %83, ptr noundef nonnull @.str.21) #3
  br label %85

85:                                               ; preds = %73, %.thread37, %81, %78, %77
  %.2 = phi i32 [ -1, %81 ], [ %.140, %78 ], [ %.0.ph, %77 ], [ -1, %.thread37 ], [ -1, %73 ]
  ret i32 %.2
}